; Function Attrs: mustprogress uwtable
define internal void @"_ZNSt17_Function_handlerIFN2cv3MatES1_EZNKS0_3ccm8RGBBase_8relationERKNS3_10ColorSpaceEE3$_0E9_M_invokeERKSt9_Any_dataOS1_"(ptr dead_on_unwind noalias writable sret(%"class.cv::Mat") align 8 %0, ptr noundef nonnull readonly align 8 captures(none) dereferenceable(16) %1, ptr noundef nonnull align 8 dereferenceable(96) %2) #3 align 2 personality ptr @__gxx_personality_v0 {
  %4 = alloca %"class.cv::Mat", align 8
  %5 = alloca %"class.cv::Mat", align 8
  call void @llvm.lifetime.start.p0(i64 96, ptr nonnull %5), !noalias !425
  call void @_ZN2cv3MatC1EOS0_(ptr noundef nonnull align 8 dereferenceable(96) %5, ptr noundef nonnull align 8 dereferenceable(96) %2) #35, !noalias !428
  %.val.i.i = load ptr, ptr %1, align 8, !tbaa !431, !noalias !428
  call void @llvm.lifetime.start.p0(i64 96, ptr nonnull %4), !noalias !428
  call void @_ZN2cv3MatC1Ev(ptr noundef nonnull align 8 dereferenceable(96) %4) #35, !noalias !433
  %6 = load ptr, ptr %.val.i.i, align 8, !tbaa !12, !noalias !433
  %7 = getelementptr inbounds nuw i8, ptr %6, i64 40
  %8 = load ptr, ptr %7, align 8, !noalias !433
  invoke void %8(ptr dead_on_unwind writable sret(%"class.cv::Mat") align 8 %0, ptr noundef nonnull align 8 dereferenceable(440) %.val.i.i, ptr noundef nonnull align 8 dereferenceable(96) %5, ptr noundef nonnull %4)
          to label %"_ZSt10__invoke_rIN2cv3MatERZNKS0_3ccm8RGBBase_8relationERKNS2_10ColorSpaceEE3$_0JS1_EENSt9enable_ifIXsr6__and_ISt6__not_ISt7is_voidIT_EESt14is_convertibleINSt15__invoke_resultIT0_JDpT1_EE4typeESC_EEE5valueESC_E4typeEOSH_DpOSI_.exit" unwind label %.body.i.i

.body.i.i:                                        ; preds = %3
  %9 = landingpad { ptr, i32 }
          cleanup
  call void @_ZN2cv3MatD1Ev(ptr noundef nonnull align 8 dereferenceable(96) %4) #35
  call void @_ZN2cv3MatD1Ev(ptr noundef nonnull align 8 dereferenceable(96) %5) #35
  resume { ptr, i32 } %9

"_ZSt10__invoke_rIN2cv3MatERZNKS0_3ccm8RGBBase_8relationERKNS2_10ColorSpaceEE3$_0JS1_EENSt9enable_ifIXsr6__and_ISt6__not_ISt7is_voidIT_EESt14is_convertibleINSt15__invoke_resultIT0_JDpT1_EE4typeESC_EEE5valueESC_E4typeEOSH_DpOSI_.exit": ; preds = %3
  call void @_ZN2cv3MatD1Ev(ptr noundef nonnull align 8 dereferenceable(96) %4) #35
  call void @llvm.lifetime.end.p0(i64 96, ptr nonnull %4), !noalias !428
  call void @_ZN2cv3MatD1Ev(ptr noundef nonnull align 8 dereferenceable(96) %5) #35
  call void @llvm.lifetime.end.p0(i64 96, ptr nonnull %5), !noalias !425
  ret void
}